; Function Attrs: mustprogress uwtable
define internal fastcc void @_ZZN8facebook5velox4bits10forEachBitIZNS0_4exec7EvalCtx22applyToSelectedNoThrowIZNKS0_9functions12_GLOBAL__N_116ArraySumFunctionIslE9applyCoreILb0EZNKS9_9applyFlatILb0EEEvRKNS0_17SelectivityVectorERS4_PNS0_11ArrayVectorEPKmPKsPNS0_10FlatVectorIlEEEUliE_ZNKSB_ILb0EEEvSE_SF_SH_SJ_SL_SO_EUliE0_EEvSE_SF_PKSG_SO_OT0_OT1_EUlT_E_EEvSE_SX_EUlSX_E_EEvSJ_iibSX_ENKUlimE_clEim(ptr nocapture noundef nonnull readonly align 8 dereferenceable(32) %this, i32 noundef %idx, i64 noundef %mask) unnamed_addr #0 align 2 personality ptr @__gxx_personality_v0 {
entry:
  %ref.tmp.i = alloca %"class.std::__exception_ptr::exception_ptr", align 8
  %ref.tmp11.i = alloca %"class.std::__exception_ptr::exception_ptr", align 8
  %0 = load i8, ptr %this, align 8
  %1 = and i8 %0, 1
  %2 = getelementptr inbounds i8, ptr %this, i64 8
  %3 = load ptr, ptr %2, align 8
  %idxprom2 = sext i32 %idx to i64
  %arrayidx3 = getelementptr inbounds i64, ptr %3, i64 %idxprom2
  %4 = load i64, ptr %arrayidx3, align 8
  %sext = add nsw i8 %1, -1
  %not = sext i8 %sext to i64
  %cond = xor i64 %4, %not
  %and = and i64 %cond, %mask
  %tobool4.not = icmp eq i64 %and, 0
  br i1 %tobool4.not, label %while.end, label %while.body.preheader

while.body.preheader:                             ; preds = %entry
  %5 = getelementptr inbounds i8, ptr %this, i64 16
  %mul = shl nsw i32 %idx, 6
  %6 = getelementptr inbounds i8, ptr %this, i64 24
  br label %while.body

while.body:                                       ; preds = %while.body.preheader, %_ZZN8facebook5velox4exec7EvalCtx22applyToSelectedNoThrowIZNKS0_9functions12_GLOBAL__N_116ArraySumFunctionIslE9applyCoreILb0EZNKS7_9applyFlatILb0EEEvRKNS0_17SelectivityVectorERS2_PNS0_11ArrayVectorEPKmPKsPNS0_10FlatVectorIlEEEUliE_ZNKS9_ILb0EEEvSC_SD_SF_SH_SJ_SM_EUliE0_EEvSC_SD_PKSE_SM_OT0_OT1_EUlT_E_EEvSC_SV_ENKUlSV_E_clIiEEDaSV_.exit
  %word.0 = phi i64 [ %and6, %_ZZN8facebook5velox4exec7EvalCtx22applyToSelectedNoThrowIZNKS0_9functions12_GLOBAL__N_116ArraySumFunctionIslE9applyCoreILb0EZNKS7_9applyFlatILb0EEEvRKNS0_17SelectivityVectorERS2_PNS0_11ArrayVectorEPKmPKsPNS0_10FlatVectorIlEEEUliE_ZNKS9_ILb0EEEvSC_SD_SF_SH_SJ_SM_EUliE0_EEvSC_SD_PKSE_SM_OT0_OT1_EUlT_E_EEvSC_SV_ENKUlSV_E_clIiEEDaSV_.exit ], [ %and, %while.body.preheader ]
  %7 = call i64 @llvm.cttz.i64(i64 %word.0, i1 true), !range !61
  %cast = trunc i64 %7 to i32
  %add = or disjoint i32 %mul, %cast
  %8 = load ptr, ptr %6, align 8
  %9 = load ptr, ptr %5, align 8
  invoke fastcc void @_ZZNK8facebook5velox9functions12_GLOBAL__N_116ArraySumFunctionIslE9applyCoreILb0EZNKS4_9applyFlatILb0EEEvRKNS0_17SelectivityVectorERNS0_4exec7EvalCtxEPNS0_11ArrayVectorEPKmPKsPNS0_10FlatVectorIlEEEUliE_ZNKS6_ILb0EEEvS9_SC_SE_SG_SI_SL_EUliE0_EEvS9_SC_PKSD_SL_OT0_OT1_ENKUlT_E_clIiEEDaSU_(ptr noundef nonnull align 8 dereferenceable(40) %9, i32 noundef %add)
          to label %_ZZN8facebook5velox4exec7EvalCtx22applyToSelectedNoThrowIZNKS0_9functions12_GLOBAL__N_116ArraySumFunctionIslE9applyCoreILb0EZNKS7_9applyFlatILb0EEEvRKNS0_17SelectivityVectorERS2_PNS0_11ArrayVectorEPKmPKsPNS0_10FlatVectorIlEEEUliE_ZNKS9_ILb0EEEvSC_SD_SF_SH_SJ_SM_EUliE0_EEvSC_SD_PKSE_SM_OT0_OT1_EUlT_E_EEvSC_SV_ENKUlSV_E_clIiEEDaSV_.exit unwind label %lpad.i

lpad.i:                                           ; preds = %while.body
  %10 = landingpad { ptr, i32 }
          catch ptr @_ZTIN8facebook5velox14VeloxExceptionE
          catch ptr @_ZTISt9exception
  %11 = extractvalue { ptr, i32 } %10, 0
  %12 = extractvalue { ptr, i32 } %10, 1
  %13 = call i32 @llvm.eh.typeid.for(ptr nonnull @_ZTIN8facebook5velox14VeloxExceptionE) #29
  %matches.i = icmp eq i32 %12, %13
  br i1 %matches.i, label %catch6.i, label %catch.fallthrough.i

catch6.i:                                         ; preds = %lpad.i
  %14 = call ptr @__cxa_begin_catch(ptr %11) #29
  %call.i = invoke noundef zeroext i1 @_ZNK8facebook5velox14VeloxException11isUserErrorEv(ptr noundef nonnull align 8 dereferenceable(24) %14)
          to label %invoke.cont10.i unwind label %lpad9.i.loopexit

invoke.cont10.i:                                  ; preds = %catch6.i
  br i1 %call.i, label %if.end.i, label %if.then.i

if.then.i:                                        ; preds = %invoke.cont10.i
  invoke void @__cxa_rethrow() #30
          to label %unreachable.i unwind label %lpad9.i.loopexit.split-lp

catch.fallthrough.i:                              ; preds = %lpad.i
  %15 = call i32 @llvm.eh.typeid.for(ptr nonnull @_ZTISt9exception) #29
  %matches2.i = icmp eq i32 %12, %15
  br i1 %matches2.i, label %catch.i, label %eh.resume.i

catch.i:                                          ; preds = %catch.fallthrough.i
  %16 = call ptr @__cxa_begin_catch(ptr %11) #29
  call void @_ZSt17current_exceptionv(ptr nonnull sret(%"class.std::__exception_ptr::exception_ptr") align 8 %ref.tmp.i) #29
  invoke void @_ZN8facebook5velox4exec7EvalCtx8setErrorEiRKNSt15__exception_ptr13exception_ptrE(ptr noundef nonnull align 8 dereferenceable(104) %8, i32 noundef %add, ptr noundef nonnull align 8 dereferenceable(8) %ref.tmp.i)
          to label %invoke.cont4.i unwind label %lpad3.i

invoke.cont4.i:                                   ; preds = %catch.i
  %17 = load ptr, ptr %ref.tmp.i, align 8
  %tobool.not.i = icmp eq ptr %17, null
  br i1 %tobool.not.i, label %_ZZN8facebook5velox4exec7EvalCtx22applyToSelectedNoThrowIZNKS0_9functions12_GLOBAL__N_116ArraySumFunctionIslE9applyCoreILb0EZNKS7_9applyFlatILb0EEEvRKNS0_17SelectivityVectorERS2_PNS0_11ArrayVectorEPKmPKsPNS0_10FlatVectorIlEEEUliE_ZNKS9_ILb0EEEvSC_SD_SF_SH_SJ_SM_EUliE0_EEvSC_SD_PKSE_SM_OT0_OT1_EUlT_E_EEvSC_SV_ENKUlSV_E_clIiEEDaSV_.exit.sink.split, label %_ZZN8facebook5velox4exec7EvalCtx22applyToSelectedNoThrowIZNKS0_9functions12_GLOBAL__N_116ArraySumFunctionIslE9applyCoreILb0EZNKS7_9applyFlatILb0EEEvRKNS0_17SelectivityVectorERS2_PNS0_11ArrayVectorEPKmPKsPNS0_10FlatVectorIlEEEUliE_ZNKS9_ILb0EEEvSC_SD_SF_SH_SJ_SM_EUliE0_EEvSC_SD_PKSE_SM_OT0_OT1_EUlT_E_EEvSC_SV_ENKUlSV_E_clIiEEDaSV_.exit.sink.split.sink.split

lpad3.i:                                          ; preds = %catch.i
  %18 = landingpad { ptr, i32 }
          cleanup
  %19 = load ptr, ptr %ref.tmp.i, align 8
  %tobool.not.i14 = icmp eq ptr %19, null
  br i1 %tobool.not.i14, label %_ZNSt15__exception_ptr13exception_ptrD2Ev.exit17, label %if.then.i15

if.then.i15:                                      ; preds = %lpad3.i
  call void @_ZNSt15__exception_ptr13exception_ptr10_M_releaseEv(ptr noundef nonnull align 8 dereferenceable(8) %ref.tmp.i) #29
  br label %_ZNSt15__exception_ptr13exception_ptrD2Ev.exit17

_ZNSt15__exception_ptr13exception_ptrD2Ev.exit17: ; preds = %lpad3.i, %if.then.i15
  invoke void @__cxa_end_catch()
          to label %eh.resume.i unwind label %terminate.lpad.i

lpad9.i.loopexit:                                 ; preds = %catch6.i
  %lpad.loopexit = landingpad { ptr, i32 }
          cleanup
  br label %ehcleanup.i

lpad9.i.loopexit.split-lp:                        ; preds = %if.then.i
  %lpad.loopexit.split-lp = landingpad { ptr, i32 }
          cleanup
  br label %ehcleanup.i

if.end.i:                                         ; preds = %invoke.cont10.i
  call void @_ZSt17current_exceptionv(ptr nonnull sret(%"class.std::__exception_ptr::exception_ptr") align 8 %ref.tmp11.i) #29
  invoke void @_ZN8facebook5velox4exec7EvalCtx22setVeloxExceptionErrorEiRKNSt15__exception_ptr13exception_ptrE(ptr noundef nonnull align 8 dereferenceable(104) %8, i32 noundef %add, ptr noundef nonnull align 8 dereferenceable(8) %ref.tmp11.i)
          to label %invoke.cont13.i unwind label %lpad12.i

invoke.cont13.i:                                  ; preds = %if.end.i
  %20 = load ptr, ptr %ref.tmp11.i, align 8
  %tobool.not.i18 = icmp eq ptr %20, null
  br i1 %tobool.not.i18, label %_ZZN8facebook5velox4exec7EvalCtx22applyToSelectedNoThrowIZNKS0_9functions12_GLOBAL__N_116ArraySumFunctionIslE9applyCoreILb0EZNKS7_9applyFlatILb0EEEvRKNS0_17SelectivityVectorERS2_PNS0_11ArrayVectorEPKmPKsPNS0_10FlatVectorIlEEEUliE_ZNKS9_ILb0EEEvSC_SD_SF_SH_SJ_SM_EUliE0_EEvSC_SD_PKSE_SM_OT0_OT1_EUlT_E_EEvSC_SV_ENKUlSV_E_clIiEEDaSV_.exit.sink.split, label %_ZZN8facebook5velox4exec7EvalCtx22applyToSelectedNoThrowIZNKS0_9functions12_GLOBAL__N_116ArraySumFunctionIslE9applyCoreILb0EZNKS7_9applyFlatILb0EEEvRKNS0_17SelectivityVectorERS2_PNS0_11ArrayVectorEPKmPKsPNS0_10FlatVectorIlEEEUliE_ZNKS9_ILb0EEEvSC_SD_SF_SH_SJ_SM_EUliE0_EEvSC_SD_PKSE_SM_OT0_OT1_EUlT_E_EEvSC_SV_ENKUlSV_E_clIiEEDaSV_.exit.sink.split.sink.split

lpad12.i:                                         ; preds = %if.end.i
  %21 = landingpad { ptr, i32 }
          cleanup
  %22 = load ptr, ptr %ref.tmp11.i, align 8
  %tobool.not.i22 = icmp eq ptr %22, null
  br i1 %tobool.not.i22, label %ehcleanup.i, label %if.then.i23

if.then.i23:                                      ; preds = %lpad12.i
  call void @_ZNSt15__exception_ptr13exception_ptr10_M_releaseEv(ptr noundef nonnull align 8 dereferenceable(8) %ref.tmp11.i) #29
  br label %ehcleanup.i

ehcleanup.i:                                      ; preds = %lpad9.i.loopexit, %lpad9.i.loopexit.split-lp, %if.then.i23, %lpad12.i
  %.pn = phi { ptr, i32 } [ %21, %lpad12.i ], [ %21, %if.then.i23 ], [ %lpad.loopexit, %lpad9.i.loopexit ], [ %lpad.loopexit.split-lp, %lpad9.i.loopexit.split-lp ]
  invoke void @__cxa_end_catch()
          to label %eh.resume.i unwind label %terminate.lpad.i

eh.resume.i:                                      ; preds = %catch.fallthrough.i, %ehcleanup.i, %_ZNSt15__exception_ptr13exception_ptrD2Ev.exit17
  %lpad.val17.i.merged = phi { ptr, i32 } [ %.pn, %ehcleanup.i ], [ %18, %_ZNSt15__exception_ptr13exception_ptrD2Ev.exit17 ], [ %10, %catch.fallthrough.i ]
  resume { ptr, i32 } %lpad.val17.i.merged

terminate.lpad.i:                                 ; preds = %ehcleanup.i, %_ZNSt15__exception_ptr13exception_ptrD2Ev.exit17
  %23 = landingpad { ptr, i32 }
          catch ptr null
  %24 = extractvalue { ptr, i32 } %23, 0
  call void @__clang_call_terminate(ptr %24) #33
  unreachable

unreachable.i:                                    ; preds = %if.then.i
  unreachable

_ZZN8facebook5velox4exec7EvalCtx22applyToSelectedNoThrowIZNKS0_9functions12_GLOBAL__N_116ArraySumFunctionIslE9applyCoreILb0EZNKS7_9applyFlatILb0EEEvRKNS0_17SelectivityVectorERS2_PNS0_11ArrayVectorEPKmPKsPNS0_10FlatVectorIlEEEUliE_ZNKS9_ILb0EEEvSC_SD_SF_SH_SJ_SM_EUliE0_EEvSC_SD_PKSE_SM_OT0_OT1_EUlT_E_EEvSC_SV_ENKUlSV_E_clIiEEDaSV_.exit.sink.split.sink.split: ; preds = %invoke.cont13.i, %invoke.cont4.i
  %ref.tmp11.i.sink = phi ptr [ %ref.tmp.i, %invoke.cont4.i ], [ %ref.tmp11.i, %invoke.cont13.i ]
  call void @_ZNSt15__exception_ptr13exception_ptr10_M_releaseEv(ptr noundef nonnull align 8 dereferenceable(8) %ref.tmp11.i.sink) #29
  br label %_ZZN8facebook5velox4exec7EvalCtx22applyToSelectedNoThrowIZNKS0_9functions12_GLOBAL__N_116ArraySumFunctionIslE9applyCoreILb0EZNKS7_9applyFlatILb0EEEvRKNS0_17SelectivityVectorERS2_PNS0_11ArrayVectorEPKmPKsPNS0_10FlatVectorIlEEEUliE_ZNKS9_ILb0EEEvSC_SD_SF_SH_SJ_SM_EUliE0_EEvSC_SD_PKSE_SM_OT0_OT1_EUlT_E_EEvSC_SV_ENKUlSV_E_clIiEEDaSV_.exit.sink.split

_ZZN8facebook5velox4exec7EvalCtx22applyToSelectedNoThrowIZNKS0_9functions12_GLOBAL__N_116ArraySumFunctionIslE9applyCoreILb0EZNKS7_9applyFlatILb0EEEvRKNS0_17SelectivityVectorERS2_PNS0_11ArrayVectorEPKmPKsPNS0_10FlatVectorIlEEEUliE_ZNKS9_ILb0EEEvSC_SD_SF_SH_SJ_SM_EUliE0_EEvSC_SD_PKSE_SM_OT0_OT1_EUlT_E_EEvSC_SV_ENKUlSV_E_clIiEEDaSV_.exit.sink.split: ; preds = %_ZZN8facebook5velox4exec7EvalCtx22applyToSelectedNoThrowIZNKS0_9functions12_GLOBAL__N_116ArraySumFunctionIslE9applyCoreILb0EZNKS7_9applyFlatILb0EEEvRKNS0_17SelectivityVectorERS2_PNS0_11ArrayVectorEPKmPKsPNS0_10FlatVectorIlEEEUliE_ZNKS9_ILb0EEEvSC_SD_SF_SH_SJ_SM_EUliE0_EEvSC_SD_PKSE_SM_OT0_OT1_EUlT_E_EEvSC_SV_ENKUlSV_E_clIiEEDaSV_.exit.sink.split.sink.split, %invoke.cont13.i, %invoke.cont4.i
  call void @__cxa_end_catch()
  br label %_ZZN8facebook5velox4exec7EvalCtx22applyToSelectedNoThrowIZNKS0_9functions12_GLOBAL__N_116ArraySumFunctionIslE9applyCoreILb0EZNKS7_9applyFlatILb0EEEvRKNS0_17SelectivityVectorERS2_PNS0_11ArrayVectorEPKmPKsPNS0_10FlatVectorIlEEEUliE_ZNKS9_ILb0EEEvSC_SD_SF_SH_SJ_SM_EUliE0_EEvSC_SD_PKSE_SM_OT0_OT1_EUlT_E_EEvSC_SV_ENKUlSV_E_clIiEEDaSV_.exit

_ZZN8facebook5velox4exec7EvalCtx22applyToSelectedNoThrowIZNKS0_9functions12_GLOBAL__N_116ArraySumFunctionIslE9applyCoreILb0EZNKS7_9applyFlatILb0EEEvRKNS0_17SelectivityVectorERS2_PNS0_11ArrayVectorEPKmPKsPNS0_10FlatVectorIlEEEUliE_ZNKS9_ILb0EEEvSC_SD_SF_SH_SJ_SM_EUliE0_EEvSC_SD_PKSE_SM_OT0_OT1_EUlT_E_EEvSC_SV_ENKUlSV_E_clIiEEDaSV_.exit: ; preds = %_ZZN8facebook5velox4exec7EvalCtx22applyToSelectedNoThrowIZNKS0_9functions12_GLOBAL__N_116ArraySumFunctionIslE9applyCoreILb0EZNKS7_9applyFlatILb0EEEvRKNS0_17SelectivityVectorERS2_PNS0_11ArrayVectorEPKmPKsPNS0_10FlatVectorIlEEEUliE_ZNKS9_ILb0EEEvSC_SD_SF_SH_SJ_SM_EUliE0_EEvSC_SD_PKSE_SM_OT0_OT1_EUlT_E_EEvSC_SV_ENKUlSV_E_clIiEEDaSV_.exit.sink.split, %while.body
  %sub = add i64 %word.0, -1
  %and6 = and i64 %sub, %word.0
  %tobool5.old.not = icmp eq i64 %and6, 0
  br i1 %tobool5.old.not, label %while.end, label %while.body

while.end:                                        ; preds = %_ZZN8facebook5velox4exec7EvalCtx22applyToSelectedNoThrowIZNKS0_9functions12_GLOBAL__N_116ArraySumFunctionIslE9applyCoreILb0EZNKS7_9applyFlatILb0EEEvRKNS0_17SelectivityVectorERS2_PNS0_11ArrayVectorEPKmPKsPNS0_10FlatVectorIlEEEUliE_ZNKS9_ILb0EEEvSC_SD_SF_SH_SJ_SM_EUliE0_EEvSC_SD_PKSE_SM_OT0_OT1_EUlT_E_EEvSC_SV_ENKUlSV_E_clIiEEDaSV_.exit, %entry
  ret void
}